target datalayout = "e-m:e-p270:32:32-p271:32:32-p272:64:64-i64:64-i128:128-f80:128-n8:16:32:64-S128"
target triple = "x86_64-pc-linux-gnu"

; Function Attrs: nounwind uwtable
define internal void @horizontal_compose_dd97i_12bit(ptr noundef %0, ptr noundef %1, i32 noundef %2) #0 {
  %4 = alloca ptr, align 8
  %5 = alloca ptr, align 8
  %6 = alloca i32, align 4
  %7 = alloca i32, align 4
  %8 = alloca i32, align 4
  %9 = alloca ptr, align 8
  %10 = alloca ptr, align 8
  store ptr %0, ptr %4, align 8, !tbaa !44
  store ptr %1, ptr %5, align 8, !tbaa !44
  store i32 %2, ptr %6, align 4, !tbaa !11
  call void @llvm.lifetime.start.p0(i64 4, ptr %7) #5
  call void @llvm.lifetime.start.p0(i64 4, ptr %8) #5
  %11 = load i32, ptr %6, align 4, !tbaa !11
  %12 = ashr i32 %11, 1
  store i32 %12, ptr %8, align 4, !tbaa !11
  call void @llvm.lifetime.start.p0(i64 8, ptr %9) #5
  %13 = load ptr, ptr %4, align 8, !tbaa !44
  store ptr %13, ptr %9, align 8, !tbaa !91
  call void @llvm.lifetime.start.p0(i64 8, ptr %10) #5
  %14 = load ptr, ptr %5, align 8, !tbaa !44
  store ptr %14, ptr %10, align 8, !tbaa !91
  %15 = load ptr, ptr %9, align 8, !tbaa !91
  %16 = getelementptr inbounds i32, ptr %15, i64 0
  %17 = load i32, ptr %16, align 4, !tbaa !11
  %18 = load ptr, ptr %9, align 8, !tbaa !91
  %19 = load i32, ptr %8, align 4, !tbaa !11
  %20 = sext i32 %19 to i64
  %21 = getelementptr inbounds i32, ptr %18, i64 %20
  %22 = load i32, ptr %21, align 4, !tbaa !11
  %23 = load ptr, ptr %9, align 8, !tbaa !91
  %24 = load i32, ptr %8, align 4, !tbaa !11
  %25 = sext i32 %24 to i64
  %26 = getelementptr inbounds i32, ptr %23, i64 %25
  %27 = load i32, ptr %26, align 4, !tbaa !11
  %28 = add i32 %22, %27
  %29 = add i32 %28, 2
  %30 = ashr i32 %29, 2
  %31 = sub i32 %17, %30
  %32 = load ptr, ptr %10, align 8, !tbaa !91
  %33 = getelementptr inbounds i32, ptr %32, i64 0
  store i32 %31, ptr %33, align 4, !tbaa !11
  store i32 1, ptr %7, align 4, !tbaa !11
  br label %34

34:                                               ; preds = %67, %3
  %35 = load i32, ptr %7, align 4, !tbaa !11
  %36 = load i32, ptr %8, align 4, !tbaa !11
  %37 = icmp slt i32 %35, %36
  br i1 %37, label %38, label %70

38:                                               ; preds = %34
  %39 = load ptr, ptr %9, align 8, !tbaa !91
  %40 = load i32, ptr %7, align 4, !tbaa !11
  %41 = sext i32 %40 to i64
  %42 = getelementptr inbounds i32, ptr %39, i64 %41
  %43 = load i32, ptr %42, align 4, !tbaa !11
  %44 = load ptr, ptr %9, align 8, !tbaa !91
  %45 = load i32, ptr %7, align 4, !tbaa !11
  %46 = load i32, ptr %8, align 4, !tbaa !11
  %47 = add nsw i32 %45, %46
  %48 = sub nsw i32 %47, 1
  %49 = sext i32 %48 to i64
  %50 = getelementptr inbounds i32, ptr %44, i64 %49
  %51 = load i32, ptr %50, align 4, !tbaa !11
  %52 = load ptr, ptr %9, align 8, !tbaa !91
  %53 = load i32, ptr %7, align 4, !tbaa !11
  %54 = load i32, ptr %8, align 4, !tbaa !11
  %55 = add nsw i32 %53, %54
  %56 = sext i32 %55 to i64
  %57 = getelementptr inbounds i32, ptr %52, i64 %56
  %58 = load i32, ptr %57, align 4, !tbaa !11
  %59 = add i32 %51, %58
  %60 = add i32 %59, 2
  %61 = ashr i32 %60, 2
  %62 = sub i32 %43, %61
  %63 = load ptr, ptr %10, align 8, !tbaa !91
  %64 = load i32, ptr %7, align 4, !tbaa !11
  %65 = sext i32 %64 to i64
  %66 = getelementptr inbounds i32, ptr %63, i64 %65
  store i32 %62, ptr %66, align 4, !tbaa !11
  br label %67

67:                                               ; preds = %38
  %68 = load i32, ptr %7, align 4, !tbaa !11
  %69 = add nsw i32 %68, 1
  store i32 %69, ptr %7, align 4, !tbaa !11
  br label %34, !llvm.loop !130

70:                                               ; preds = %34
  %71 = load ptr, ptr %10, align 8, !tbaa !91
  %72 = getelementptr inbounds i32, ptr %71, i64 0
  %73 = load i32, ptr %72, align 4, !tbaa !11
  %74 = load ptr, ptr %10, align 8, !tbaa !91
  %75 = getelementptr inbounds i32, ptr %74, i64 -1
  store i32 %73, ptr %75, align 4, !tbaa !11
  %76 = load ptr, ptr %10, align 8, !tbaa !91
  %77 = load i32, ptr %8, align 4, !tbaa !11
  %78 = sub nsw i32 %77, 1
  %79 = sext i32 %78 to i64
  %80 = getelementptr inbounds i32, ptr %76, i64 %79
  %81 = load i32, ptr %80, align 4, !tbaa !11
  %82 = load ptr, ptr %10, align 8, !tbaa !91
  %83 = load i32, ptr %8, align 4, !tbaa !11
  %84 = sext i32 %83 to i64
  %85 = getelementptr inbounds i32, ptr %82, i64 %84
  store i32 %81, ptr %85, align 4, !tbaa !11
  %86 = load ptr, ptr %10, align 8, !tbaa !91
  %87 = load i32, ptr %8, align 4, !tbaa !11
  %88 = add nsw i32 %87, 1
  %89 = sext i32 %88 to i64
  %90 = getelementptr inbounds i32, ptr %86, i64 %89
  store i32 %81, ptr %90, align 4, !tbaa !11
  store i32 0, ptr %7, align 4, !tbaa !11
  br label %91

91:                                               ; preds = %154, %70
  %92 = load i32, ptr %7, align 4, !tbaa !11
  %93 = load i32, ptr %8, align 4, !tbaa !11
  %94 = icmp slt i32 %92, %93
  br i1 %94, label %95, label %157

95:                                               ; preds = %91
  %96 = load ptr, ptr %10, align 8, !tbaa !91
  %97 = load i32, ptr %7, align 4, !tbaa !11
  %98 = sext i32 %97 to i64
  %99 = getelementptr inbounds i32, ptr %96, i64 %98
  %100 = load i32, ptr %99, align 4, !tbaa !11
  %101 = add i32 %100, 1
  %102 = ashr i32 %101, 1
  %103 = load ptr, ptr %9, align 8, !tbaa !91
  %104 = load i32, ptr %7, align 4, !tbaa !11
  %105 = mul nsw i32 2, %104
  %106 = sext i32 %105 to i64
  %107 = getelementptr inbounds i32, ptr %103, i64 %106
  store i32 %102, ptr %107, align 4, !tbaa !11
  %108 = load ptr, ptr %9, align 8, !tbaa !91
  %109 = load i32, ptr %7, align 4, !tbaa !11
  %110 = load i32, ptr %8, align 4, !tbaa !11
  %111 = add nsw i32 %109, %110
  %112 = sext i32 %111 to i64
  %113 = getelementptr inbounds i32, ptr %108, i64 %112
  %114 = load i32, ptr %113, align 4, !tbaa !11
  %115 = load ptr, ptr %10, align 8, !tbaa !91
  %116 = load i32, ptr %7, align 4, !tbaa !11
  %117 = sext i32 %116 to i64
  %118 = getelementptr inbounds i32, ptr %115, i64 %117
  %119 = load i32, ptr %118, align 4, !tbaa !11
  %120 = mul i32 9, %119
  %121 = load ptr, ptr %10, align 8, !tbaa !91
  %122 = load i32, ptr %7, align 4, !tbaa !11
  %123 = add nsw i32 %122, 1
  %124 = sext i32 %123 to i64
  %125 = getelementptr inbounds i32, ptr %121, i64 %124
  %126 = load i32, ptr %125, align 4, !tbaa !11
  %127 = mul i32 9, %126
  %128 = add i32 %120, %127
  %129 = load ptr, ptr %10, align 8, !tbaa !91
  %130 = load i32, ptr %7, align 4, !tbaa !11
  %131 = add nsw i32 %130, 2
  %132 = sext i32 %131 to i64
  %133 = getelementptr inbounds i32, ptr %129, i64 %132
  %134 = load i32, ptr %133, align 4, !tbaa !11
  %135 = sub i32 %128, %134
  %136 = load ptr, ptr %10, align 8, !tbaa !91
  %137 = load i32, ptr %7, align 4, !tbaa !11
  %138 = sub nsw i32 %137, 1
  %139 = sext i32 %138 to i64
  %140 = getelementptr inbounds i32, ptr %136, i64 %139
  %141 = load i32, ptr %140, align 4, !tbaa !11
  %142 = sub i32 %135, %141
  %143 = add i32 %142, 8
  %144 = ashr i32 %143, 4
  %145 = add i32 %114, %144
  %146 = add i32 %145, 1
  %147 = ashr i32 %146, 1
  %148 = load ptr, ptr %9, align 8, !tbaa !91
  %149 = load i32, ptr %7, align 4, !tbaa !11
  %150 = mul nsw i32 2, %149
  %151 = add nsw i32 %150, 1
  %152 = sext i32 %151 to i64
  %153 = getelementptr inbounds i32, ptr %148, i64 %152
  store i32 %147, ptr %153, align 4, !tbaa !11
  br label %154

154:                                              ; preds = %95
  %155 = load i32, ptr %7, align 4, !tbaa !11
  %156 = add nsw i32 %155, 1
  store i32 %156, ptr %7, align 4, !tbaa !11
  br label %91, !llvm.loop !131

157:                                              ; preds = %91
  call void @llvm.lifetime.end.p0(i64 8, ptr %10) #5
  call void @llvm.lifetime.end.p0(i64 8, ptr %9) #5
  call void @llvm.lifetime.end.p0(i64 4, ptr %8) #5
  call void @llvm.lifetime.end.p0(i64 4, ptr %7) #5
  ret void
}