; Function Attrs: nofree norecurse nosync nounwind memory(argmem: readwrite) uwtable
define internal void @horizontal_compose_dd97i_12bit(ptr noundef captures(none) %0, ptr noundef captures(none) initializes((0, 4)) %1, i32 noundef %2) #3 {
  %4 = ashr i32 %2, 1
  %5 = load i32, ptr %0, align 4, !tbaa !70
  %6 = sext i32 %4 to i64
  %7 = getelementptr inbounds i32, ptr %0, i64 %6
  %8 = load i32, ptr %7, align 4, !tbaa !70
  %9 = shl i32 %8, 1
  %10 = add i32 %9, 2
  %11 = ashr i32 %10, 2
  %12 = sub i32 %5, %11
  store i32 %12, ptr %1, align 4, !tbaa !70
  %13 = icmp sgt i32 %4, 1
  br i1 %13, label %.lr.ph.preheader, label %._crit_edge

.lr.ph.preheader:                                 ; preds = %3
  %14 = zext nneg i32 %4 to i64
  %invariant.gep = getelementptr i32, ptr %0, i64 %14
  br label %.lr.ph

.lr.ph:                                           ; preds = %.lr.ph.preheader, %.lr.ph
  %indvars.iv = phi i64 [ 1, %.lr.ph.preheader ], [ %indvars.iv.next, %.lr.ph ]
  %15 = getelementptr inbounds nuw i32, ptr %0, i64 %indvars.iv
  %16 = load i32, ptr %15, align 4, !tbaa !70
  %gep = getelementptr i32, ptr %invariant.gep, i64 %indvars.iv
  %17 = getelementptr i8, ptr %gep, i64 -4
  %18 = load i32, ptr %17, align 4, !tbaa !70
  %19 = load i32, ptr %gep, align 4, !tbaa !70
  %20 = add i32 %18, 2
  %21 = add i32 %20, %19
  %22 = ashr i32 %21, 2
  %23 = sub i32 %16, %22
  %24 = getelementptr inbounds nuw i32, ptr %1, i64 %indvars.iv
  store i32 %23, ptr %24, align 4, !tbaa !70
  %indvars.iv.next = add nuw nsw i64 %indvars.iv, 1
  %exitcond.not = icmp eq i64 %indvars.iv.next, %14
  br i1 %exitcond.not, label %._crit_edge.thread, label %.lr.ph, !llvm.loop !102

._crit_edge.thread:                               ; preds = %.lr.ph
  %25 = getelementptr inbounds i8, ptr %1, i64 -4
  store i32 %12, ptr %25, align 4, !tbaa !70
  %26 = getelementptr i32, ptr %1, i64 %6
  %27 = getelementptr i8, ptr %26, i64 -4
  %28 = load i32, ptr %27, align 4, !tbaa !70
  store i32 %28, ptr %26, align 4, !tbaa !70
  %29 = getelementptr i8, ptr %26, i64 4
  store i32 %28, ptr %29, align 4, !tbaa !70
  br label %.lr.ph56.preheader

._crit_edge:                                      ; preds = %3
  %30 = getelementptr inbounds i8, ptr %1, i64 -4
  store i32 %12, ptr %30, align 4, !tbaa !70
  %31 = getelementptr i32, ptr %1, i64 %6
  %32 = getelementptr i8, ptr %31, i64 -4
  %33 = load i32, ptr %32, align 4, !tbaa !70
  store i32 %33, ptr %31, align 4, !tbaa !70
  %34 = getelementptr i8, ptr %31, i64 4
  store i32 %33, ptr %34, align 4, !tbaa !70
  %35 = icmp eq i32 %4, 1
  br i1 %35, label %.lr.ph56.preheader, label %._crit_edge57

.lr.ph56.preheader:                               ; preds = %._crit_edge.thread, %._crit_edge
  %36 = zext nneg i32 %4 to i64
  %invariant.gep64 = getelementptr inbounds nuw i32, ptr %0, i64 %36
  br label %.lr.ph56

.lr.ph56:                                         ; preds = %.lr.ph56.preheader, %.lr.ph56
  %indvars.iv59 = phi i64 [ 0, %.lr.ph56.preheader ], [ %indvars.iv.next60, %.lr.ph56 ]
  %37 = getelementptr inbounds nuw i32, ptr %1, i64 %indvars.iv59
  %38 = load i32, ptr %37, align 4, !tbaa !70
  %39 = add i32 %38, 1
  %40 = ashr i32 %39, 1
  %.idx = shl nuw nsw i64 %indvars.iv59, 3
  %41 = getelementptr inbounds nuw i8, ptr %0, i64 %.idx
  store i32 %40, ptr %41, align 4, !tbaa !70
  %gep65 = getelementptr inbounds nuw i32, ptr %invariant.gep64, i64 %indvars.iv59
  %42 = load i32, ptr %gep65, align 4, !tbaa !70
  %43 = load i32, ptr %37, align 4, !tbaa !70
  %indvars.iv.next60 = add nuw nsw i64 %indvars.iv59, 1
  %44 = getelementptr inbounds nuw i32, ptr %1, i64 %indvars.iv.next60
  %45 = load i32, ptr %44, align 4, !tbaa !70
  %46 = add i32 %45, %43
  %47 = mul i32 %46, 9
  %48 = getelementptr inbounds nuw i8, ptr %37, i64 8
  %49 = load i32, ptr %48, align 4, !tbaa !70
  %50 = getelementptr i8, ptr %37, i64 -4
  %51 = load i32, ptr %50, align 4, !tbaa !70
  %52 = add i32 %49, %51
  %reass.sub = sub i32 %47, %52
  %53 = add i32 %reass.sub, 8
  %54 = ashr i32 %53, 4
  %55 = add i32 %42, 1
  %56 = add i32 %55, %54
  %57 = ashr i32 %56, 1
  %58 = getelementptr inbounds nuw i8, ptr %41, i64 4
  store i32 %57, ptr %58, align 4, !tbaa !70
  %exitcond63.not = icmp eq i64 %indvars.iv.next60, %36
  br i1 %exitcond63.not, label %._crit_edge57, label %.lr.ph56, !llvm.loop !103

._crit_edge57:                                    ; preds = %.lr.ph56, %._crit_edge
  ret void
}